target datalayout = "e-m:e-p270:32:32-p271:32:32-p272:64:64-i64:64-i128:128-f80:128-n8:16:32:64-S128"
target triple = "x86_64-pc-linux-gnu"

%struct._N_VectorContent_Serial = type { i64, i32, ptr }
%struct._generic_N_Vector = type { ptr, ptr }

@.str = private unnamed_addr constant [9 x i8] c"%19.16g\0A\00", align 1
@.str.1 = private unnamed_addr constant [2 x i8] c"\0A\00", align 1

; Function Attrs: nounwind uwtable
define void @N_VPrint_Serial(ptr noundef %0) #0 {
  %2 = alloca ptr, align 8
  %3 = alloca i64, align 8
  %4 = alloca i64, align 8
  %5 = alloca ptr, align 8
  store ptr %0, ptr %2, align 8, !tbaa !7
  call void @llvm.lifetime.start.p0(i64 8, ptr %3) #6
  call void @llvm.lifetime.start.p0(i64 8, ptr %4) #6
  call void @llvm.lifetime.start.p0(i64 8, ptr %5) #6
  store ptr null, ptr %5, align 8, !tbaa !49
  %6 = load ptr, ptr %2, align 8, !tbaa !7
  %7 = getelementptr inbounds nuw %struct._generic_N_Vector, ptr %6, i32 0, i32 0
  %8 = load ptr, ptr %7, align 8, !tbaa !46
  %9 = getelementptr inbounds nuw %struct._N_VectorContent_Serial, ptr %8, i32 0, i32 0
  %10 = load i64, ptr %9, align 8, !tbaa !40
  store i64 %10, ptr %4, align 8, !tbaa !3
  %11 = load ptr, ptr %2, align 8, !tbaa !7
  %12 = getelementptr inbounds nuw %struct._generic_N_Vector, ptr %11, i32 0, i32 0
  %13 = load ptr, ptr %12, align 8, !tbaa !46
  %14 = getelementptr inbounds nuw %struct._N_VectorContent_Serial, ptr %13, i32 0, i32 2
  %15 = load ptr, ptr %14, align 8, !tbaa !45
  store ptr %15, ptr %5, align 8, !tbaa !49
  store i64 0, ptr %3, align 8, !tbaa !3
  br label %16

16:                                               ; preds = %26, %1
  %17 = load i64, ptr %3, align 8, !tbaa !3
  %18 = load i64, ptr %4, align 8, !tbaa !3
  %19 = icmp slt i64 %17, %18
  br i1 %19, label %20, label %29

20:                                               ; preds = %16
  %21 = load ptr, ptr %5, align 8, !tbaa !49
  %22 = load i64, ptr %3, align 8, !tbaa !3
  %23 = getelementptr inbounds double, ptr %21, i64 %22
  %24 = load double, ptr %23, align 8, !tbaa !52
  %25 = call i32 (ptr, ...) @printf(ptr noundef @.str, double noundef %24)
  br label %26

26:                                               ; preds = %20
  %27 = load i64, ptr %3, align 8, !tbaa !3
  %28 = add nsw i64 %27, 1
  store i64 %28, ptr %3, align 8, !tbaa !3
  br label %16, !llvm.loop !80

29:                                               ; preds = %16
  %30 = call i32 (ptr, ...) @printf(ptr noundef @.str.1)
  call void @llvm.lifetime.end.p0(i64 8, ptr %5) #6
  call void @llvm.lifetime.end.p0(i64 8, ptr %4) #6
  call void @llvm.lifetime.end.p0(i64 8, ptr %3) #6
  ret void
}