; Function Attrs: nofree nounwind uwtable
define void @N_VPrint_Serial(ptr noundef readonly captures(none) %0) local_unnamed_addr #11 {
  %2 = load ptr, ptr %0, align 8, !tbaa !39
  %3 = load i64, ptr %2, align 8, !tbaa !32
  %4 = getelementptr inbounds nuw i8, ptr %2, i64 16
  %5 = load ptr, ptr %4, align 8, !tbaa !38
  %6 = icmp sgt i64 %3, 0
  br i1 %6, label %.lr.ph, label %._crit_edge

.lr.ph:                                           ; preds = %1, %.lr.ph
  %.06 = phi i64 [ %10, %.lr.ph ], [ 0, %1 ]
  %7 = getelementptr inbounds nuw double, ptr %5, i64 %.06
  %8 = load double, ptr %7, align 8, !tbaa !44
  %9 = tail call i32 (ptr, ...) @printf(ptr noundef nonnull dereferenceable(1) @.str, double noundef %8)
  %10 = add nuw nsw i64 %.06, 1
  %exitcond.not = icmp eq i64 %10, %3
  br i1 %exitcond.not, label %._crit_edge, label %.lr.ph, !llvm.loop !83

._crit_edge:                                      ; preds = %.lr.ph, %1
  %putchar = tail call i32 @putchar(i32 10)
  ret void
}